target datalayout = "e-m:e-p270:32:32-p271:32:32-p272:64:64-i64:64-i128:128-f80:128-n8:16:32:64-S128"
target triple = "x86_64-pc-linux-gnu"

%union.anon.0 = type { i32 }
%struct.Header = type { ptr, i32, i32 }

@nativeendian = internal constant %union.anon.0 { i32 1 }, align 4
@.str.69 = private unnamed_addr constant [23 x i8] c"variable-length format\00", align 1
@.str.70 = private unnamed_addr constant [24 x i8] c"format result too large\00", align 1

; Function Attrs: nounwind uwtable
define internal void @initheader(ptr noundef %0, ptr noundef %1) #0 {
  %3 = alloca ptr, align 8
  %4 = alloca ptr, align 8
  store ptr %0, ptr %3, align 8, !tbaa !4
  store ptr %1, ptr %4, align 8, !tbaa !65
  %5 = load ptr, ptr %3, align 8, !tbaa !4
  %6 = load ptr, ptr %4, align 8, !tbaa !65
  %7 = getelementptr inbounds nuw %struct.Header, ptr %6, i32 0, i32 0
  store ptr %5, ptr %7, align 8, !tbaa !67
  %8 = load i8, ptr @nativeendian, align 4, !tbaa !17
  %9 = sext i8 %8 to i32
  %10 = load ptr, ptr %4, align 8, !tbaa !65
  %11 = getelementptr inbounds nuw %struct.Header, ptr %10, i32 0, i32 1
  store i32 %9, ptr %11, align 8, !tbaa !37
  %12 = load ptr, ptr %4, align 8, !tbaa !65
  %13 = getelementptr inbounds nuw %struct.Header, ptr %12, i32 0, i32 2
  store i32 1, ptr %13, align 4, !tbaa !68
  ret void
}

; Function Attrs: nounwind uwtable
define internal i32 @str_packsize(ptr noundef %0) #0 {
  %2 = alloca ptr, align 8
  %3 = alloca %struct.Header, align 8
  %4 = alloca ptr, align 8
  %5 = alloca i64, align 8
  %6 = alloca i32, align 4
  %7 = alloca i64, align 8
  %8 = alloca i32, align 4
  store ptr %0, ptr %2, align 8, !tbaa !4
  call void @llvm.lifetime.start.p0(i64 16, ptr %3) #11
  call void @llvm.lifetime.start.p0(i64 8, ptr %4) #11
  %9 = load ptr, ptr %2, align 8, !tbaa !4
  %10 = call ptr @luaL_checklstring(ptr noundef %9, i32 noundef 1, ptr noundef null)
  store ptr %10, ptr %4, align 8, !tbaa !9
  call void @llvm.lifetime.start.p0(i64 8, ptr %5) #11
  store i64 0, ptr %5, align 8, !tbaa !13
  %11 = load ptr, ptr %2, align 8, !tbaa !4
  call void @initheader(ptr noundef %11, ptr noundef %3)
  br label %12

12:                                               ; preds = %54, %1
  %13 = load ptr, ptr %4, align 8, !tbaa !9
  %14 = load i8, ptr %13, align 1, !tbaa !17
  %15 = sext i8 %14 to i32
  %16 = icmp ne i32 %15, 0
  br i1 %16, label %17, label %58

17:                                               ; preds = %12
  call void @llvm.lifetime.start.p0(i64 4, ptr %6) #11
  call void @llvm.lifetime.start.p0(i64 8, ptr %7) #11
  call void @llvm.lifetime.start.p0(i64 4, ptr %8) #11
  %18 = load i64, ptr %5, align 8, !tbaa !13
  %19 = call i32 @getdetails(ptr noundef %3, i64 noundef %18, ptr noundef %4, ptr noundef %7, ptr noundef %6)
  store i32 %19, ptr %8, align 4, !tbaa !15
  %20 = load i32, ptr %8, align 4, !tbaa !15
  %21 = icmp ne i32 %20, 6
  br i1 %21, label %22, label %25

22:                                               ; preds = %17
  %23 = load i32, ptr %8, align 4, !tbaa !15
  %24 = icmp ne i32 %23, 7
  br label %25

25:                                               ; preds = %22, %17
  %26 = phi i1 [ false, %17 ], [ %24, %22 ]
  %27 = zext i1 %26 to i32
  %28 = icmp ne i32 %27, 0
  %29 = zext i1 %28 to i32
  %30 = sext i32 %29 to i64
  %31 = call i64 @llvm.expect.i64(i64 %30, i64 1)
  %32 = icmp ne i64 %31, 0
  br i1 %32, label %36, label %33

33:                                               ; preds = %25
  %34 = load ptr, ptr %2, align 8, !tbaa !4
  %35 = call i32 @luaL_argerror(ptr noundef %34, i32 noundef 1, ptr noundef @.str.69)
  br label %36

36:                                               ; preds = %33, %25
  %37 = load i32, ptr %6, align 4, !tbaa !15
  %38 = zext i32 %37 to i64
  %39 = load i64, ptr %7, align 8, !tbaa !13
  %40 = add i64 %39, %38
  store i64 %40, ptr %7, align 8, !tbaa !13
  %41 = load i64, ptr %5, align 8, !tbaa !13
  %42 = load i64, ptr %7, align 8, !tbaa !13
  %43 = sub i64 9223372036854775807, %42
  %44 = icmp ule i64 %41, %43
  %45 = zext i1 %44 to i32
  %46 = icmp ne i32 %45, 0
  %47 = zext i1 %46 to i32
  %48 = sext i32 %47 to i64
  %49 = call i64 @llvm.expect.i64(i64 %48, i64 1)
  %50 = icmp ne i64 %49, 0
  br i1 %50, label %54, label %51

51:                                               ; preds = %36
  %52 = load ptr, ptr %2, align 8, !tbaa !4
  %53 = call i32 @luaL_argerror(ptr noundef %52, i32 noundef 1, ptr noundef @.str.70)
  br label %54

54:                                               ; preds = %51, %36
  %55 = load i64, ptr %7, align 8, !tbaa !13
  %56 = load i64, ptr %5, align 8, !tbaa !13
  %57 = add i64 %56, %55
  store i64 %57, ptr %5, align 8, !tbaa !13
  call void @llvm.lifetime.end.p0(i64 4, ptr %8) #11
  call void @llvm.lifetime.end.p0(i64 8, ptr %7) #11
  call void @llvm.lifetime.end.p0(i64 4, ptr %6) #11
  br label %12

58:                                               ; preds = %12
  %59 = load ptr, ptr %2, align 8, !tbaa !4
  %60 = load i64, ptr %5, align 8, !tbaa !13
  call void @lua_pushinteger(ptr noundef %59, i64 noundef %60)
  call void @llvm.lifetime.end.p0(i64 8, ptr %5) #11
  call void @llvm.lifetime.end.p0(i64 8, ptr %4) #11
  call void @llvm.lifetime.end.p0(i64 16, ptr %3) #11
  ret i32 1
}