; Function Attrs: nounwind uwtable
define internal noundef i32 @str_packsize(ptr noundef %0) #0 {
  %2 = alloca %struct.Header, align 8
  %3 = alloca ptr, align 8
  %4 = alloca i32, align 4
  %5 = alloca i64, align 8
  call void @llvm.lifetime.start.p0(i64 16, ptr nonnull %2) #12
  call void @llvm.lifetime.start.p0(i64 8, ptr nonnull %3) #12
  %6 = tail call ptr @luaL_checklstring(ptr noundef %0, i32 noundef 1, ptr noundef null) #12
  store ptr %6, ptr %3, align 8, !tbaa !45
  store ptr %0, ptr %2, align 8, !tbaa !46
  %7 = getelementptr inbounds nuw i8, ptr %2, i64 8
  store i32 1, ptr %7, align 8, !tbaa !48
  %8 = getelementptr inbounds nuw i8, ptr %2, i64 12
  store i32 1, ptr %8, align 4, !tbaa !49
  %9 = load i8, ptr %6, align 1, !tbaa !9
  %.not11 = icmp eq i8 %9, 0
  br i1 %.not11, label %._crit_edge, label %.lr.ph

.lr.ph:                                           ; preds = %1, %23
  %.012 = phi i64 [ %24, %23 ], [ 0, %1 ]
  call void @llvm.lifetime.start.p0(i64 4, ptr nonnull %4) #12
  call void @llvm.lifetime.start.p0(i64 8, ptr nonnull %5) #12
  %10 = call fastcc i32 @getdetails(ptr noundef %2, i64 noundef %.012, ptr noundef %3, ptr noundef %5, ptr noundef %4)
  %11 = add nsw i32 %10, -8
  %12 = icmp ult i32 %11, -2
  br i1 %12, label %15, label %13, !prof !10

13:                                               ; preds = %.lr.ph
  %14 = tail call i32 @luaL_argerror(ptr noundef %0, i32 noundef 1, ptr noundef nonnull @.str.69) #12
  br label %15

15:                                               ; preds = %13, %.lr.ph
  %16 = load i32, ptr %4, align 4, !tbaa !44
  %17 = zext i32 %16 to i64
  %18 = load i64, ptr %5, align 8, !tbaa !4
  %19 = add i64 %18, %17
  %20 = sub i64 9223372036854775807, %19
  %.not10 = icmp ugt i64 %.012, %20
  br i1 %.not10, label %21, label %23, !prof !8

21:                                               ; preds = %15
  %22 = tail call i32 @luaL_argerror(ptr noundef %0, i32 noundef 1, ptr noundef nonnull @.str.70) #12
  br label %23

23:                                               ; preds = %21, %15
  %24 = add i64 %19, %.012
  call void @llvm.lifetime.end.p0(i64 8, ptr nonnull %5) #12
  call void @llvm.lifetime.end.p0(i64 4, ptr nonnull %4) #12
  %25 = load ptr, ptr %3, align 8, !tbaa !45
  %26 = load i8, ptr %25, align 1, !tbaa !9
  %.not = icmp eq i8 %26, 0
  br i1 %.not, label %._crit_edge, label %.lr.ph

._crit_edge:                                      ; preds = %23, %1
  %.0.lcssa = phi i64 [ 0, %1 ], [ %24, %23 ]
  tail call void @lua_pushinteger(ptr noundef %0, i64 noundef %.0.lcssa) #12
  call void @llvm.lifetime.end.p0(i64 8, ptr nonnull %3) #12
  call void @llvm.lifetime.end.p0(i64 16, ptr nonnull %2) #12
  ret i32 1
}